target datalayout = "e-m:e-p270:32:32-p271:32:32-p272:64:64-i64:64-i128:128-f80:128-n8:16:32:64-S128"
target triple = "x86_64-pc-linux-gnu"

%"class.LIEF::MachO::ChainedBindingInfo" = type { %"class.LIEF::MachO::BindingInfo", i32, i32, i32, i32, %union.anon }
%"class.LIEF::MachO::BindingInfo" = type { %"class.LIEF::Object", ptr, ptr, i32, i64, i8, ptr, i64 }
%"class.LIEF::Object" = type { ptr }
%union.anon = type { ptr }

; Function Attrs: mustprogress nounwind uwtable
define void @_ZN4LIEF5MachO18ChainedBindingInfo7addressEm(ptr noundef nonnull align 8 dereferenceable(88) %0, i64 noundef %1) unnamed_addr #5 align 2 {
  %3 = alloca ptr, align 8
  %4 = alloca i64, align 8
  store ptr %0, ptr %3, align 8
  store i64 %1, ptr %4, align 8
  %5 = load ptr, ptr %3, align 8
  %6 = load i64, ptr %4, align 8
  %7 = getelementptr inbounds %"class.LIEF::MachO::BindingInfo", ptr %5, i32 0, i32 7
  %8 = load i64, ptr %7, align 8
  %9 = sub i64 %6, %8
  %10 = trunc i64 %9 to i32
  %11 = getelementptr inbounds %"class.LIEF::MachO::ChainedBindingInfo", ptr %5, i32 0, i32 3
  store i32 %10, ptr %11, align 8
  ret void
}