; Function Attrs: mustprogress nofree norecurse nosync nounwind willreturn memory(argmem: readwrite) uwtable
define void @_ZN4LIEF5MachO18ChainedBindingInfo7addressEm(ptr nocapture noundef nonnull align 8 dereferenceable(88) %0, i64 noundef %1) unnamed_addr #8 align 2 {
  %3 = getelementptr inbounds i8, ptr %0, i64 56
  %4 = load i64, ptr %3, align 8
  %5 = sub i64 %1, %4
  %6 = trunc i64 %5 to i32
  %7 = getelementptr inbounds i8, ptr %0, i64 72
  store i32 %6, ptr %7, align 8
  ret void
}